; Function Attrs: mustprogress uwtable
define hidden void @_ZN2cv3hal12cpu_baseline7sqrt64fEPKdPdi(ptr noundef readonly captures(none) %0, ptr noundef writeonly captures(none) %1, i32 noundef %2) local_unnamed_addr #0 personality ptr @__gxx_personality_v0 {
  %4 = alloca %"class.cv::utils::trace::details::Region", align 8
  call void @llvm.lifetime.start.p0(i64 16, ptr nonnull %4) #12
  call void @_ZN2cv5utils5trace7details6RegionC1ERKNS3_21LocationStaticStorageE(ptr noundef nonnull align 8 dereferenceable(12) %4, ptr noundef nonnull align 8 dereferenceable(32) @_ZZN2cv3hal12cpu_baseline7sqrt64fEPKdPdiE25__cv_trace_location_fn424)
  %5 = icmp sgt i32 %2, 0
  br i1 %5, label %.lr.ph.preheader, label %._crit_edge

.lr.ph.preheader:                                 ; preds = %3
  %wide.trip.count = zext nneg i32 %2 to i64
  br label %.lr.ph

.lr.ph:                                           ; preds = %.lr.ph.preheader, %.lr.ph
  %indvars.iv = phi i64 [ 0, %.lr.ph.preheader ], [ %indvars.iv.next, %.lr.ph ]
  %6 = getelementptr inbounds nuw double, ptr %0, i64 %indvars.iv
  %7 = load double, ptr %6, align 8, !tbaa !14
  %8 = call double @sqrt(double noundef %7) #12, !tbaa !26
  %9 = getelementptr inbounds nuw double, ptr %1, i64 %indvars.iv
  store double %8, ptr %9, align 8, !tbaa !14
  %indvars.iv.next = add nuw nsw i64 %indvars.iv, 1
  %exitcond.not = icmp eq i64 %indvars.iv.next, %wide.trip.count
  br i1 %exitcond.not, label %._crit_edge, label %.lr.ph, !llvm.loop !30

._crit_edge:                                      ; preds = %.lr.ph, %3
  %10 = getelementptr inbounds nuw i8, ptr %4, i64 8
  %11 = load i32, ptr %10, align 8, !tbaa !9
  %.not.i = icmp eq i32 %11, 0
  br i1 %.not.i, label %_ZN2cv5utils5trace7details6RegionD2Ev.exit, label %12

12:                                               ; preds = %._crit_edge
  invoke void @_ZN2cv5utils5trace7details6Region7destroyEv(ptr noundef nonnull align 8 dereferenceable(12) %4)
          to label %_ZN2cv5utils5trace7details6RegionD2Ev.exit unwind label %13

13:                                               ; preds = %12
  %14 = landingpad { ptr, i32 }
          catch ptr null
  %15 = extractvalue { ptr, i32 } %14, 0
  call void @__clang_call_terminate(ptr %15) #13
  unreachable

_ZN2cv5utils5trace7details6RegionD2Ev.exit:       ; preds = %._crit_edge, %12
  call void @llvm.lifetime.end.p0(i64 16, ptr nonnull %4) #12
  ret void
}